(lp1
S'/home/letaiv/pythonL/irss/movie/database/test/set/parted//TheLordofTheRings2001_1.txt'
p2
aS'/home/letaiv/pythonL/irss/movie/database/test/set/parted//TheLordofTheRings2001_2.txt'
p3
aS'/home/letaiv/pythonL/irss/movie/database/test/set/parted//TheLordofTheRings2001_3.txt'
p4
aS'/home/letaiv/pythonL/irss/movie/database/test/set/parted//TheLordofTheRings2001_4.txt'
p5
aS'/home/letaiv/pythonL/irss/movie/database/test/set/parted//TheLordofTheRings2001_5.txt'
p6
aS'/home/letaiv/pythonL/irss/movie/database/test/set/parted//TheLordofTheRings2001_6.txt'
p7
aS'/home/letaiv/pythonL/irss/movie/database/test/set/parted//TheLordofTheRings2001_7.txt'
p8
aS'/home/letaiv/pythonL/irss/movie/database/test/set/parted//TheLordofTheRings2001_8.txt'
p9
aS'/home/letaiv/pythonL/irss/movie/database/test/set/parted//TheLordofTheRings2001_9.txt'
p10
aS'/home/letaiv/pythonL/irss/movie/database/test/set/parted//TheLordofTheRings2002_1.txt'
p11
aS'/home/letaiv/pythonL/irss/movie/database/test/set/parted//TheLordofTheRings2002_2.txt'
p12
aS'/home/letaiv/pythonL/irss/movie/database/test/set/parted//TheLordofTheRings2002_3.txt'
p13
aS'/home/letaiv/pythonL/irss/movie/database/test/set/parted//TheLordofTheRings2002_4.txt'
p14
aS'/home/letaiv/pythonL/irss/movie/database/test/set/parted//TheLordofTheRings2002_5.txt'
p15
aS'/home/letaiv/pythonL/irss/movie/database/test/set/parted//TheLordofTheRings2002_6.txt'
p16
aS'/home/letaiv/pythonL/irss/movie/database/test/set/parted//TheLordofTheRings2002_7.txt'
p17
aS'/home/letaiv/pythonL/irss/movie/database/test/set/parted//TheLordofTheRings2002_8.txt'
p18
aS'/home/letaiv/pythonL/irss/movie/database/test/set/parted//TheLordofTheRings2002_9.txt'
p19
aS'/home/letaiv/pythonL/irss/movie/database/test/set/parted//TheLordofTheRings2003_1.txt'
p20
aS'/home/letaiv/pythonL/irss/movie/database/test/set/parted//TheLordofTheRings2003_2.txt'
p21
aS'/home/letaiv/pythonL/irss/movie/database/test/set/parted//TheLordofTheRings2003_3.txt'
p22
aS'/home/letaiv/pythonL/irss/movie/database/test/set/parted//TheLordofTheRings2003_4.txt'
p23
aS'/home/letaiv/pythonL/irss/movie/database/test/set/parted//TheLordofTheRings2003_5.txt'
p24
aS'/home/letaiv/pythonL/irss/movie/database/test/set/parted//TheLordofTheRings2003_6.txt'
p25
aS'/home/letaiv/pythonL/irss/movie/database/test/set/parted//TheLordofTheRings2003_7.txt'
p26
aS'/home/letaiv/pythonL/irss/movie/database/test/set/parted//TheLordofTheRings2003_8.txt'
p27
aS'/home/letaiv/pythonL/irss/movie/database/test/set/parted//TheLordofTheRings2003_9.txt'
p28
a.